Certificate:
    Data:
        Version: 3 (0x2)
        Serial Number:
            e6:ac:b8:d0:11:6c:a9:5b:64:f2:f8:51:e7:7f:c3:a0
        Signature Algorithm: sha256WithRSAEncryption
        Issuer: CN=luceor.com
        Validity
            Not Before: Aug 25 16:06:21 2023 GMT
            Not After : Nov 27 16:06:21 2025 GMT
        Subject: CN=stc1
        Subject Public Key Info:
            Public Key Algorithm: rsaEncryption
                Public-Key: (2048 bit)
                Modulus:
                    00:bb:82:19:ee:5d:26:8a:e7:45:58:86:97:9c:6a:
                    de:eb:84:1a:18:b3:04:22:7b:46:44:bd:b0:c5:a7:
                    0a:a8:fc:cb:24:27:33:f6:1e:69:89:bf:0b:55:bf:
                    54:22:df:97:f2:43:f8:cd:f9:0b:90:28:60:72:b5:
                    14:5c:f6:f3:64:8b:60:67:13:17:6a:f6:d0:c9:31:
                    db:99:e4:ba:5e:95:7d:bd:49:18:ef:d1:74:d4:4c:
                    43:1d:0a:c8:1b:8c:db:e2:19:b4:e5:06:47:7e:ec:
                    d8:77:6b:9f:a4:ee:dd:a7:30:6b:d2:ae:56:fd:84:
                    80:ea:a9:34:2f:4b:d9:54:aa:a8:97:85:1b:9b:bf:
                    f5:e8:0a:bf:4a:eb:db:f6:6f:c0:30:62:08:e2:38:
                    6d:6b:10:4e:30:ee:cc:72:64:33:7e:95:62:09:e7:
                    47:d7:f1:f6:f5:ec:9c:f6:09:10:aa:79:f3:31:7d:
                    d0:d4:f1:8e:6d:e5:c4:2c:a2:0f:af:6b:c3:71:b7:
                    ce:66:7b:0a:d5:dd:6b:52:ba:fd:26:e2:fd:05:df:
                    c1:12:95:c6:9b:32:81:de:93:a1:29:60:ae:be:a7:
                    8f:dd:6a:e2:99:85:3c:14:2a:dd:c9:04:30:c2:5d:
                    66:c5:bb:f2:00:75:c0:a7:80:02:d9:07:bb:46:8b:
                    93:d7
                Exponent: 65537 (0x10001)
        X509v3 extensions:
            X509v3 Basic Constraints: 
                CA:FALSE
            X509v3 Subject Key Identifier: 
                5E:21:87:F4:36:FC:40:E4:B1:32:17:99:1C:D7:74:C3:BD:D0:28:BE
            X509v3 Authority Key Identifier: 
                keyid:17:97:6D:CB:6F:D1:78:D4:8A:A0:7E:66:CC:DB:6F:C7:0C:3A:BC:9C
                DirName:/CN=luceor.com
                serial:6D:B7:42:33:0D:36:1C:88:B8:1A:D2:75:6F:02:F4:24:66:50:72:8C
            X509v3 Extended Key Usage: 
                TLS Web Server Authentication
            X509v3 Key Usage: 
                Digital Signature, Key Encipherment
            X509v3 Subject Alternative Name: 
                DNS:stc1
    Signature Algorithm: sha256WithRSAEncryption
    Signature Value:
        82:a8:18:aa:23:98:83:f6:76:6a:5b:fa:c8:65:9e:5a:80:59:
        0b:58:01:0c:9b:ef:86:3f:c8:47:0c:8b:02:a2:27:1d:ef:03:
        e4:a1:e6:0d:c3:ed:4c:8c:dd:9d:a1:04:14:65:dd:b4:e7:00:
        38:d0:3f:c5:c8:43:c9:2f:05:ff:87:0f:bb:4a:6b:fa:50:e8:
        b5:b9:53:45:17:4b:a3:1a:0e:e7:1c:43:7c:f4:01:c6:b9:28:
        b9:93:d0:8b:10:d8:9b:83:01:54:f9:c8:60:d5:ab:ac:2c:7e:
        0c:46:96:c2:31:28:bd:f4:a3:d3:01:31:70:f6:6e:c1:07:15:
        93:84:ef:5b:75:05:41:a3:b3:ba:a9:4a:f0:ff:a5:d8:57:29:
        a5:7f:77:7f:41:78:06:0b:96:92:29:8b:2d:a1:a4:61:af:5e:
        00:91:b1:82:0d:39:7b:ab:4e:fc:4e:f3:a5:f4:31:5d:e3:a1:
        e6:4a:a9:b1:99:12:37:74:11:f5:21:27:c5:98:42:e3:65:73:
        d6:68:ba:2f:46:63:67:98:dc:b7:96:da:8d:8d:13:22:11:d9:
        32:89:cd:90:00:46:83:ac:c3:f4:c3:53:5c:67:c5:80:0a:ed:
        c9:77:bf:76:d4:9f:9c:45:60:d3:d6:dd:29:9f:55:34:69:fb:
        72:07:fe:b2
-----BEGIN CERTIFICATE-----
MIIDYjCCAkqgAwIBAgIRAOasuNARbKlbZPL4Ued/w6AwDQYJKoZIhvcNAQELBQAw
FTETMBEGA1UEAwwKbHVjZW9yLmNvbTAeFw0yMzA4MjUxNjA2MjFaFw0yNTExMjcx
NjA2MjFaMA8xDTALBgNVBAMMBHN0YzEwggEiMA0GCSqGSIb3DQEBAQUAA4IBDwAw
ggEKAoIBAQC7ghnuXSaK50VYhpecat7rhBoYswQie0ZEvbDFpwqo/MskJzP2HmmJ
vwtVv1Qi35fyQ/jN+QuQKGBytRRc9vNki2BnExdq9tDJMduZ5LpelX29SRjv0XTU
TEMdCsgbjNviGbTlBkd+7Nh3a5+k7t2nMGvSrlb9hIDqqTQvS9lUqqiXhRubv/Xo
Cr9K69v2b8AwYgjiOG1rEE4w7sxyZDN+lWIJ50fX8fb17Jz2CRCqefMxfdDU8Y5t
5cQsog+va8Nxt85mewrV3WtSuv0m4v0F38ESlcabMoHek6EpYK6+p4/dauKZhTwU
Kt3JBDDCXWbFu/IAdcCngALZB7tGi5PXAgMBAAGjgbIwga8wCQYDVR0TBAIwADAd
BgNVHQ4EFgQUXiGH9Db8QOSxMheZHNd0w73QKL4wUAYDVR0jBEkwR4AUF5dty2/R
eNSKoH5mzNtvxww6vJyhGaQXMBUxEzARBgNVBAMMCmx1Y2Vvci5jb22CFG23QjMN
NhyIuBrSdW8C9CRmUHKMMBMGA1UdJQQMMAoGCCsGAQUFBwMBMAsGA1UdDwQEAwIF
oDAPBgNVHREECDAGggRzdGMxMA0GCSqGSIb3DQEBCwUAA4IBAQCCqBiqI5iD9nZq
W/rIZZ5agFkLWAEMm++GP8hHDIsCoicd7wPkoeYNw+1MjN2doQQUZd205wA40D/F
yEPJLwX/hw+7Smv6UOi1uVNFF0ujGg7nHEN89AHGuSi5k9CLENibgwFU+chg1aus
LH4MRpbCMSi99KPTATFw9m7BBxWThO9bdQVBo7O6qUrw/6XYVymlf3d/QXgGC5aS
KYstoaRhr14AkbGCDTl7q078TvOl9DFd46HmSqmxmRI3dBH1ISfFmELjZXPWaLov
RmNnmNy3ltqNjRMiEdkyic2QAEaDrMP0w1NcZ8WACu3Jd7921J+cRWDT1t0pn1U0
aftyB/6y
-----END CERTIFICATE-----
